target datalayout = "e-m:e-p270:32:32-p271:32:32-p272:64:64-i64:64-i128:128-f80:128-n8:16:32:64-S128"
target triple = "x86_64-pc-linux-gnu"

%struct.PyWideStringList = type { i64, ptr }
%struct.PyConfig = type { i32, i32, i32, i32, i32, i32, i64, i32, i32, i32, i32, i32, i32, i32, ptr, i32, ptr, ptr, ptr, i32, %struct.PyWideStringList, %struct.PyWideStringList, %struct.PyWideStringList, %struct.PyWideStringList, i32, i32, i32, i32, i32, i32, i32, i32, i32, i32, i32, i32, i32, ptr, ptr, ptr, i32, i32, i32, i32, i32, ptr, ptr, ptr, ptr, i32, %struct.PyWideStringList, ptr, ptr, ptr, ptr, ptr, ptr, ptr, i32, ptr, ptr, ptr, ptr, i32, i32, i32 }
%struct.PyCompilerFlags = type { i32, i32 }
%struct._PyFutureFeatures = type { i32, %struct._Py_SourceLocation }
%struct._Py_SourceLocation = type { i32, i32, i32, i32 }

; Function Attrs: nounwind uwtable
define hidden i32 @_PyCompile_AstOptimize(ptr noundef %0, ptr noundef %1, ptr noundef %2, i32 noundef %3, ptr noundef %4) #0 {
  %6 = alloca i32, align 4
  %7 = alloca ptr, align 8
  %8 = alloca ptr, align 8
  %9 = alloca ptr, align 8
  %10 = alloca i32, align 4
  %11 = alloca ptr, align 8
  %12 = alloca %struct._PyFutureFeatures, align 4
  %13 = alloca i32, align 4
  %14 = alloca i32, align 4
  store ptr %0, ptr %7, align 8, !tbaa !125
  store ptr %1, ptr %8, align 8, !tbaa !32
  store ptr %2, ptr %9, align 8, !tbaa !42
  store i32 %3, ptr %10, align 4, !tbaa !50
  store ptr %4, ptr %11, align 8, !tbaa !127
  call void @llvm.lifetime.start.p0(i64 20, ptr %12) #8
  %15 = load ptr, ptr %7, align 8, !tbaa !125
  %16 = load ptr, ptr %8, align 8, !tbaa !32
  %17 = call i32 @_PyFuture_FromAST(ptr noundef %15, ptr noundef %16, ptr noundef %12)
  %18 = icmp ne i32 %17, 0
  br i1 %18, label %20, label %19

19:                                               ; preds = %5
  store i32 -1, ptr %6, align 4
  store i32 1, ptr %13, align 4
  br label %43

20:                                               ; preds = %5
  call void @llvm.lifetime.start.p0(i64 4, ptr %14) #8
  %21 = getelementptr inbounds nuw %struct._PyFutureFeatures, ptr %12, i32 0, i32 0
  %22 = load i32, ptr %21, align 4, !tbaa !131
  %23 = load ptr, ptr %9, align 8, !tbaa !42
  %24 = getelementptr inbounds nuw %struct.PyCompilerFlags, ptr %23, i32 0, i32 0
  %25 = load i32, ptr %24, align 4, !tbaa !132
  %26 = or i32 %22, %25
  store i32 %26, ptr %14, align 4, !tbaa !50
  %27 = load i32, ptr %10, align 4, !tbaa !50
  %28 = icmp eq i32 %27, -1
  br i1 %28, label %29, label %33

29:                                               ; preds = %20
  %30 = call ptr @_Py_GetConfig()
  %31 = getelementptr inbounds nuw %struct.PyConfig, ptr %30, i32 0, i32 29
  %32 = load i32, ptr %31, align 4, !tbaa !133
  store i32 %32, ptr %10, align 4, !tbaa !50
  br label %33

33:                                               ; preds = %29, %20
  %34 = load ptr, ptr %7, align 8, !tbaa !125
  %35 = load ptr, ptr %11, align 8, !tbaa !127
  %36 = load i32, ptr %10, align 4, !tbaa !50
  %37 = load i32, ptr %14, align 4, !tbaa !50
  %38 = call i32 @_PyAST_Optimize(ptr noundef %34, ptr noundef %35, i32 noundef %36, i32 noundef %37)
  %39 = icmp ne i32 %38, 0
  br i1 %39, label %41, label %40

40:                                               ; preds = %33
  store i32 -1, ptr %6, align 4
  store i32 1, ptr %13, align 4
  br label %42

41:                                               ; preds = %33
  store i32 0, ptr %6, align 4
  store i32 1, ptr %13, align 4
  br label %42

42:                                               ; preds = %41, %40
  call void @llvm.lifetime.end.p0(i64 4, ptr %14) #8
  br label %43

43:                                               ; preds = %42, %19
  call void @llvm.lifetime.end.p0(i64 20, ptr %12) #8
  %44 = load i32, ptr %6, align 4
  ret i32 %44
}