; Function Attrs: nounwind uwtable
define hidden range(i32 -1, 1) i32 @_PyCompile_AstOptimize(ptr noundef %0, ptr noundef %1, ptr noundef readonly captures(none) %2, i32 noundef %3, ptr noundef %4) local_unnamed_addr #0 {
  %6 = alloca %struct._PyFutureFeatures, align 4
  call void @llvm.lifetime.start.p0(i64 20, ptr nonnull %6) #11
  %7 = call i32 @_PyFuture_FromAST(ptr noundef %0, ptr noundef %1, ptr noundef nonnull %6) #11
  %.not = icmp eq i32 %7, 0
  br i1 %.not, label %19, label %8

8:                                                ; preds = %5
  %9 = load i32, ptr %6, align 4, !tbaa !105
  %10 = load i32, ptr %2, align 4, !tbaa !99
  %11 = or i32 %10, %9
  %12 = icmp eq i32 %3, -1
  br i1 %12, label %13, label %17

13:                                               ; preds = %8
  %14 = call ptr @_Py_GetConfig() #11
  %15 = getelementptr inbounds nuw i8, ptr %14, i64 196
  %16 = load i32, ptr %15, align 4, !tbaa !100
  br label %17

17:                                               ; preds = %13, %8
  %.08 = phi i32 [ %16, %13 ], [ %3, %8 ]
  %18 = call i32 @_PyAST_Optimize(ptr noundef %0, ptr noundef %4, i32 noundef %.08, i32 noundef %11) #11
  %.not10 = icmp eq i32 %18, 0
  %. = sext i1 %.not10 to i32
  br label %19

19:                                               ; preds = %5, %17
  %.0 = phi i32 [ %., %17 ], [ -1, %5 ]
  call void @llvm.lifetime.end.p0(i64 20, ptr nonnull %6) #11
  ret i32 %.0
}